target datalayout = "e-m:e-p270:32:32-p271:32:32-p272:64:64-i64:64-i128:128-f80:128-n8:16:32:64-S128"
target triple = "x86_64-unknown-linux-gnu"

%"class.facebook::velox::crypto::MD5Context" = type { [4 x i32], [2 x i32], [64 x i8] }

; Function Attrs: mustprogress nounwind uwtable
define void @_ZN8facebook5velox6crypto10MD5ContextC2Ev(ptr noundef nonnull align 4 dereferenceable(88) %this) unnamed_addr #0 align 2 {
entry:
  %this.addr = alloca ptr, align 8
  store ptr %this, ptr %this.addr, align 8
  %this1 = load ptr, ptr %this.addr, align 8
  %buf = getelementptr inbounds %"class.facebook::velox::crypto::MD5Context", ptr %this1, i32 0, i32 0
  %arrayidx = getelementptr inbounds [4 x i32], ptr %buf, i64 0, i64 0
  store i32 1732584193, ptr %arrayidx, align 4
  %buf2 = getelementptr inbounds %"class.facebook::velox::crypto::MD5Context", ptr %this1, i32 0, i32 0
  %arrayidx3 = getelementptr inbounds [4 x i32], ptr %buf2, i64 0, i64 1
  store i32 -271733879, ptr %arrayidx3, align 4
  %buf4 = getelementptr inbounds %"class.facebook::velox::crypto::MD5Context", ptr %this1, i32 0, i32 0
  %arrayidx5 = getelementptr inbounds [4 x i32], ptr %buf4, i64 0, i64 2
  store i32 -1732584194, ptr %arrayidx5, align 4
  %buf6 = getelementptr inbounds %"class.facebook::velox::crypto::MD5Context", ptr %this1, i32 0, i32 0
  %arrayidx7 = getelementptr inbounds [4 x i32], ptr %buf6, i64 0, i64 3
  store i32 271733878, ptr %arrayidx7, align 4
  %bits = getelementptr inbounds %"class.facebook::velox::crypto::MD5Context", ptr %this1, i32 0, i32 1
  %arrayidx8 = getelementptr inbounds [2 x i32], ptr %bits, i64 0, i64 0
  store i32 0, ptr %arrayidx8, align 4
  %bits9 = getelementptr inbounds %"class.facebook::velox::crypto::MD5Context", ptr %this1, i32 0, i32 1
  %arrayidx10 = getelementptr inbounds [2 x i32], ptr %bits9, i64 0, i64 1
  store i32 0, ptr %arrayidx10, align 4
  ret void
}