; Function Attrs: mustprogress nofree norecurse nosync nounwind willreturn memory(argmem: write) uwtable
define void @_ZN8facebook5velox6crypto10MD5ContextC2Ev(ptr nocapture noundef nonnull writeonly align 4 dereferenceable(88) %this) unnamed_addr #0 align 2 {
entry:
  store <4 x i32> <i32 1732584193, i32 -271733879, i32 -1732584194, i32 271733878>, ptr %this, align 4
  %bits = getelementptr inbounds i8, ptr %this, i64 16
  store i32 0, ptr %bits, align 4
  %arrayidx10 = getelementptr inbounds i8, ptr %this, i64 20
  store i32 0, ptr %arrayidx10, align 4
  ret void
}